target datalayout = "e-m:e-p270:32:32-p271:32:32-p272:64:64-i64:64-i128:128-f80:128-n8:16:32:64-S128"
target triple = "x86_64-pc-linux-gnu"

@enableFsync = external global i8, align 1

; Function Attrs: nounwind uwtable
define dso_local i32 @pg_fdatasync(i32 noundef %0) #0 {
  %2 = alloca i32, align 4
  %3 = alloca i32, align 4
  %4 = alloca i32, align 4
  %5 = alloca i32, align 4
  store i32 %0, ptr %3, align 4
  call void @llvm.lifetime.start.p0(i64 4, ptr %4) #14
  %6 = load i8, ptr @enableFsync, align 1, !range !4, !noundef !5
  %7 = trunc i8 %6 to i1
  br i1 %7, label %9, label %8

8:                                                ; preds = %1
  store i32 0, ptr %2, align 4
  store i32 1, ptr %5, align 4
  br label %22

9:                                                ; preds = %1
  br label %10

10:                                               ; preds = %19, %9
  %11 = load i32, ptr %3, align 4
  %12 = call i32 @fdatasync(i32 noundef %11)
  store i32 %12, ptr %4, align 4
  %13 = load i32, ptr %4, align 4
  %14 = icmp eq i32 %13, -1
  br i1 %14, label %15, label %20

15:                                               ; preds = %10
  %16 = call ptr @__errno_location() #15
  %17 = load i32, ptr %16, align 4
  %18 = icmp eq i32 %17, 4
  br i1 %18, label %19, label %20

19:                                               ; preds = %15
  br label %10

20:                                               ; preds = %15, %10
  %21 = load i32, ptr %4, align 4
  store i32 %21, ptr %2, align 4
  store i32 1, ptr %5, align 4
  br label %22

22:                                               ; preds = %20, %8
  call void @llvm.lifetime.end.p0(i64 4, ptr %4) #14
  %23 = load i32, ptr %2, align 4
  ret i32 %23
}