; Function Attrs: nounwind uwtable
define dso_local i32 @pg_fdatasync(i32 noundef %0) local_unnamed_addr #0 {
  %2 = load i8, ptr @enableFsync, align 1, !range !4, !noundef !5
  %3 = trunc nuw i8 %2 to i1
  br i1 %3, label %.preheader, label %.loopexit

.preheader:                                       ; preds = %1, %6
  %4 = tail call i32 @fdatasync(i32 noundef %0) #25
  %5 = icmp eq i32 %4, -1
  br i1 %5, label %6, label %.loopexit

6:                                                ; preds = %.preheader
  %7 = tail call ptr @__errno_location() #26
  %8 = load i32, ptr %7, align 4
  %9 = icmp eq i32 %8, 4
  br i1 %9, label %.preheader, label %.loopexit

.loopexit:                                        ; preds = %.preheader, %6, %1
  %.0 = phi i32 [ 0, %1 ], [ %4, %.preheader ], [ -1, %6 ]
  ret i32 %.0
}